; Function Attrs: nounwind uwtable
define noalias nonnull ptr @l___private_Std_Tactic_BVDecide_Bitblast_BVExpr_Circuit_Lemmas_Operations_Add_0__Std_Tactic_BVDecide_BVExpr_bitblast_FullAdderInput_cast_match__1_splitter___boxed(ptr noundef readnone captures(none) %0, ptr noundef %1, ptr noundef %2, ptr noundef %3, ptr noundef readnone captures(none) %4) local_unnamed_addr #0 {
  tail call void @lean_inc_heartbeat() #3
  %6 = tail call noalias ptr @mi_malloc_small(i64 noundef 24) #3
  %7 = icmp eq ptr %6, null
  br i1 %7, label %8, label %l___private_Std_Tactic_BVDecide_Bitblast_BVExpr_Circuit_Lemmas_Operations_Add_0__Std_Tactic_BVDecide_BVExpr_bitblast_FullAdderInput_cast_match__1_splitter.exit

8:                                                ; preds = %5
  tail call void @lean_internal_panic_out_of_memory() #4
  unreachable

l___private_Std_Tactic_BVDecide_Bitblast_BVExpr_Circuit_Lemmas_Operations_Add_0__Std_Tactic_BVDecide_BVExpr_bitblast_FullAdderInput_cast_match__1_splitter.exit: ; preds = %5
  %9 = getelementptr inbounds nuw i8, ptr %6, i64 4
  store i32 1, ptr %6, align 4, !tbaa !8
  store i32 -184549352, ptr %9, align 4
  %10 = getelementptr inbounds nuw i8, ptr %6, i64 8
  store ptr @l___private_Std_Tactic_BVDecide_Bitblast_BVExpr_Circuit_Lemmas_Operations_Add_0__Std_Tactic_BVDecide_BVExpr_bitblast_FullAdderInput_cast_match__1_splitter___rarg, ptr %10, align 8, !tbaa !4
  %11 = getelementptr inbounds nuw i8, ptr %6, i64 16
  store i16 2, ptr %11, align 8, !tbaa !12
  %12 = getelementptr inbounds nuw i8, ptr %6, i64 18
  store i16 0, ptr %12, align 2, !tbaa !12
  %13 = ptrtoint ptr %3 to i64
  %14 = and i64 %13, 1
  %.not = icmp eq i64 %14, 0
  br i1 %.not, label %15, label %lean_dec.exit10

15:                                               ; preds = %l___private_Std_Tactic_BVDecide_Bitblast_BVExpr_Circuit_Lemmas_Operations_Add_0__Std_Tactic_BVDecide_BVExpr_bitblast_FullAdderInput_cast_match__1_splitter.exit
  %16 = load i32, ptr %3, align 4, !tbaa !8
  %17 = icmp sgt i32 %16, 1
  br i1 %17, label %18, label %20, !prof !11

18:                                               ; preds = %15
  %19 = add nsw i32 %16, -1
  store i32 %19, ptr %3, align 4, !tbaa !8
  br label %lean_dec.exit10

20:                                               ; preds = %15
  %.not.i = icmp eq i32 %16, 0
  br i1 %.not.i, label %lean_dec.exit10, label %21

21:                                               ; preds = %20
  tail call void @lean_dec_ref_cold(ptr noundef nonnull %3) #3
  br label %lean_dec.exit10

lean_dec.exit10:                                  ; preds = %21, %20, %18, %l___private_Std_Tactic_BVDecide_Bitblast_BVExpr_Circuit_Lemmas_Operations_Add_0__Std_Tactic_BVDecide_BVExpr_bitblast_FullAdderInput_cast_match__1_splitter.exit
  %22 = ptrtoint ptr %2 to i64
  %23 = and i64 %22, 1
  %.not15 = icmp eq i64 %23, 0
  br i1 %.not15, label %24, label %lean_dec.exit9

24:                                               ; preds = %lean_dec.exit10
  %25 = load i32, ptr %2, align 4, !tbaa !8
  %26 = icmp sgt i32 %25, 1
  br i1 %26, label %27, label %29, !prof !11

27:                                               ; preds = %24
  %28 = add nsw i32 %25, -1
  store i32 %28, ptr %2, align 4, !tbaa !8
  br label %lean_dec.exit9

29:                                               ; preds = %24
  %.not.i11 = icmp eq i32 %25, 0
  br i1 %.not.i11, label %lean_dec.exit9, label %30

30:                                               ; preds = %29
  tail call void @lean_dec_ref_cold(ptr noundef nonnull %2) #3
  br label %lean_dec.exit9

lean_dec.exit9:                                   ; preds = %30, %29, %27, %lean_dec.exit10
  %31 = ptrtoint ptr %1 to i64
  %32 = and i64 %31, 1
  %.not16 = icmp eq i64 %32, 0
  br i1 %.not16, label %33, label %lean_dec.exit

33:                                               ; preds = %lean_dec.exit9
  %34 = load i32, ptr %1, align 4, !tbaa !8
  %35 = icmp sgt i32 %34, 1
  br i1 %35, label %36, label %38, !prof !11

36:                                               ; preds = %33
  %37 = add nsw i32 %34, -1
  store i32 %37, ptr %1, align 4, !tbaa !8
  br label %lean_dec.exit

38:                                               ; preds = %33
  %.not.i13 = icmp eq i32 %34, 0
  br i1 %.not.i13, label %lean_dec.exit, label %39

39:                                               ; preds = %38
  tail call void @lean_dec_ref_cold(ptr noundef nonnull %1) #3
  br label %lean_dec.exit

lean_dec.exit:                                    ; preds = %39, %38, %36, %lean_dec.exit9
  ret ptr %6
}